target datalayout = "e-m:e-p270:32:32-p271:32:32-p272:64:64-i64:64-i128:128-f80:128-n8:16:32:64-S128"
target triple = "x86_64-pc-linux-gnu"

%"class.std::__cxx11::basic_stringstream" = type { %"class.std::basic_iostream.base", %"class.std::__cxx11::basic_stringbuf", %"class.std::basic_ios" }
%"class.std::basic_iostream.base" = type { %"class.std::basic_istream.base", %"class.std::basic_ostream.base" }
%"class.std::basic_istream.base" = type { ptr, i64 }
%"class.std::basic_ostream.base" = type { ptr }
%"class.std::__cxx11::basic_stringbuf" = type { %"class.std::basic_streambuf", i32, %"class.std::__cxx11::basic_string" }
%"class.std::basic_streambuf" = type { ptr, ptr, ptr, ptr, ptr, ptr, ptr, %"class.std::locale" }
%"class.std::locale" = type { ptr }
%"class.std::__cxx11::basic_string" = type { %"struct.std::__cxx11::basic_string<char>::_Alloc_hider", i64, %union.anon }
%"struct.std::__cxx11::basic_string<char>::_Alloc_hider" = type { ptr }
%union.anon = type { i64, [8 x i8] }
%"class.std::basic_ios" = type { %"class.std::ios_base", ptr, i8, i8, ptr, ptr, ptr, ptr }
%"class.std::ios_base" = type { ptr, i64, i64, i32, i32, i32, ptr, %"struct.std::ios_base::_Words", [8 x %"struct.std::ios_base::_Words"], i32, ptr, %"class.std::locale" }
%"struct.std::ios_base::_Words" = type { ptr, i64 }
%"struct.cv::utils::logging::LogTag" = type <{ ptr, i32, [4 x i8] }>

@_ZZ12emit_failmsgP7_objectPKcE11param_debug = internal global i8 0, align 1
@_ZGVZ12emit_failmsgP7_objectPKcE11param_debug = internal global i64 0, align 8
@.str.2 = private unnamed_addr constant [29 x i8] c"Bindings conversion failed: \00", align 1
@.str.3 = private unnamed_addr constant [124 x i8] c"generated/home/dtcxzyw/WorkSpace/Projects/compilers/llvm-opt-benchmark/bench/opencv/opencv/modules/python/src2/cv2_util.cpp\00", align 1
@__func__._Z12emit_failmsgP7_objectPKc = private unnamed_addr constant [13 x i8] c"emit_failmsg\00", align 1

; Function Attrs: mustprogress uwtable
define hidden void @_Z12emit_failmsgP7_objectPKc(ptr noundef %0, ptr noundef %1) #4 personality ptr @__gxx_personality_v0 {
  %3 = alloca ptr, align 8
  %4 = alloca ptr, align 8
  %5 = alloca ptr, align 8
  %6 = alloca i32, align 4
  %7 = alloca i32, align 4
  %8 = alloca ptr, align 8
  %9 = alloca %"class.std::__cxx11::basic_stringstream", align 8
  %10 = alloca %"class.std::__cxx11::basic_string", align 8
  store ptr %0, ptr %3, align 8
  store ptr %1, ptr %4, align 8
  %11 = load atomic i8, ptr @_ZGVZ12emit_failmsgP7_objectPKcE11param_debug acquire, align 8
  %12 = icmp eq i8 %11, 0
  br i1 %12, label %13, label %20, !prof !4

13:                                               ; preds = %2
  %14 = call i32 @__cxa_guard_acquire(ptr @_ZGVZ12emit_failmsgP7_objectPKcE11param_debug) #3
  %15 = icmp ne i32 %14, 0
  br i1 %15, label %16, label %20

16:                                               ; preds = %13
  %17 = invoke noundef zeroext i1 @_Z28isPythonBindingsDebugEnabledv()
          to label %18 unwind label %28

18:                                               ; preds = %16
  %19 = zext i1 %17 to i8
  store i8 %19, ptr @_ZZ12emit_failmsgP7_objectPKcE11param_debug, align 1
  call void @__cxa_guard_release(ptr @_ZGVZ12emit_failmsgP7_objectPKcE11param_debug) #3
  br label %20

20:                                               ; preds = %18, %13, %2
  %21 = load i8, ptr @_ZZ12emit_failmsgP7_objectPKcE11param_debug, align 1
  %22 = trunc i8 %21 to i1
  br i1 %22, label %23, label %75

23:                                               ; preds = %20
  br label %24

24:                                               ; preds = %23
  store i32 3, ptr %7, align 4
  store ptr null, ptr %8, align 8
  %25 = load ptr, ptr %8, align 8
  %26 = icmp ne ptr %25, null
  br i1 %26, label %32, label %27

27:                                               ; preds = %24
  store ptr null, ptr %8, align 8
  br label %32

28:                                               ; preds = %16
  %29 = landingpad { ptr, i32 }
          cleanup
  %30 = extractvalue { ptr, i32 } %29, 0
  store ptr %30, ptr %5, align 8
  %31 = extractvalue { ptr, i32 } %29, 1
  store i32 %31, ptr %6, align 4
  call void @__cxa_guard_abort(ptr @_ZGVZ12emit_failmsgP7_objectPKcE11param_debug) #3
  br label %78

32:                                               ; preds = %27, %24
  %33 = load ptr, ptr %8, align 8
  %34 = icmp ne ptr %33, null
  br i1 %34, label %37, label %35

35:                                               ; preds = %32
  %36 = call noundef ptr @_ZN2cv5utils7logging8internal15getGlobalLogTagEv()
  store ptr %36, ptr %8, align 8
  br label %37

37:                                               ; preds = %35, %32
  %38 = load ptr, ptr %8, align 8
  %39 = icmp ne ptr %38, null
  br i1 %39, label %40, label %46

40:                                               ; preds = %37
  %41 = load ptr, ptr %8, align 8
  %42 = getelementptr inbounds %"struct.cv::utils::logging::LogTag", ptr %41, i32 0, i32 1
  %43 = load i32, ptr %42, align 8
  %44 = icmp sgt i32 3, %43
  br i1 %44, label %45, label %46

45:                                               ; preds = %40
  br label %74

46:                                               ; preds = %40, %37
  call void @_ZNSt7__cxx1118basic_stringstreamIcSt11char_traitsIcESaIcEEC1Ev(ptr noundef nonnull align 8 dereferenceable(128) %9)
  %47 = getelementptr inbounds i8, ptr %9, i64 16
  %48 = invoke noundef nonnull align 8 dereferenceable(8) ptr @_ZStlsISt11char_traitsIcEERSt13basic_ostreamIcT_ES5_PKc(ptr noundef nonnull align 8 dereferenceable(8) %47, ptr noundef @.str.2)
          to label %49 unwind label %65

49:                                               ; preds = %46
  %50 = load ptr, ptr %4, align 8
  %51 = invoke noundef nonnull align 8 dereferenceable(8) ptr @_ZStlsISt11char_traitsIcEERSt13basic_ostreamIcT_ES5_PKc(ptr noundef nonnull align 8 dereferenceable(8) %48, ptr noundef %50)
          to label %52 unwind label %65

52:                                               ; preds = %49
  %53 = load ptr, ptr %8, align 8
  %54 = icmp ne ptr %53, null
  br i1 %54, label %55, label %59

55:                                               ; preds = %52
  %56 = load ptr, ptr %8, align 8
  %57 = getelementptr inbounds %"struct.cv::utils::logging::LogTag", ptr %56, i32 0, i32 0
  %58 = load ptr, ptr %57, align 8
  br label %60

59:                                               ; preds = %52
  br label %60

60:                                               ; preds = %59, %55
  %61 = phi ptr [ %58, %55 ], [ null, %59 ]
  invoke void @_ZNKSt7__cxx1118basic_stringstreamIcSt11char_traitsIcESaIcEE3strEv(ptr dead_on_unwind writable sret(%"class.std::__cxx11::basic_string") align 8 %10, ptr noundef nonnull align 8 dereferenceable(128) %9)
          to label %62 unwind label %65

62:                                               ; preds = %60
  %63 = call noundef ptr @_ZNKSt7__cxx1112basic_stringIcSt11char_traitsIcESaIcEE5c_strEv(ptr noundef nonnull align 8 dereferenceable(32) %10) #3
  invoke void @_ZN2cv5utils7logging8internal17writeLogMessageExENS1_8LogLevelEPKcS5_iS5_S5_(i32 noundef 3, ptr noundef %61, ptr noundef @.str.3, i32 noundef 24, ptr noundef @__func__._Z12emit_failmsgP7_objectPKc, ptr noundef %63)
          to label %64 unwind label %69

64:                                               ; preds = %62
  call void @_ZNSt7__cxx1112basic_stringIcSt11char_traitsIcESaIcEED1Ev(ptr noundef nonnull align 8 dereferenceable(32) %10) #3
  call void @_ZNSt7__cxx1118basic_stringstreamIcSt11char_traitsIcESaIcEED1Ev(ptr noundef nonnull align 8 dereferenceable(128) %9) #3
  br label %74

65:                                               ; preds = %60, %49, %46
  %66 = landingpad { ptr, i32 }
          cleanup
  %67 = extractvalue { ptr, i32 } %66, 0
  store ptr %67, ptr %5, align 8
  %68 = extractvalue { ptr, i32 } %66, 1
  store i32 %68, ptr %6, align 4
  br label %73

69:                                               ; preds = %62
  %70 = landingpad { ptr, i32 }
          cleanup
  %71 = extractvalue { ptr, i32 } %70, 0
  store ptr %71, ptr %5, align 8
  %72 = extractvalue { ptr, i32 } %70, 1
  store i32 %72, ptr %6, align 4
  call void @_ZNSt7__cxx1112basic_stringIcSt11char_traitsIcESaIcEED1Ev(ptr noundef nonnull align 8 dereferenceable(32) %10) #3
  br label %73

73:                                               ; preds = %69, %65
  call void @_ZNSt7__cxx1118basic_stringstreamIcSt11char_traitsIcESaIcEED1Ev(ptr noundef nonnull align 8 dereferenceable(128) %9) #3
  br label %78

74:                                               ; preds = %64, %45
  br label %75

75:                                               ; preds = %74, %20
  %76 = load ptr, ptr %3, align 8
  %77 = load ptr, ptr %4, align 8
  call void @PyErr_SetString(ptr noundef %76, ptr noundef %77)
  ret void

78:                                               ; preds = %73, %28
  %79 = load ptr, ptr %5, align 8
  %80 = load i32, ptr %6, align 4
  %81 = insertvalue { ptr, i32 } poison, ptr %79, 0
  %82 = insertvalue { ptr, i32 } %81, i32 %80, 1
  resume { ptr, i32 } %82
}