; Function Attrs: mustprogress uwtable
define hidden void @_Z12emit_failmsgP7_objectPKc(ptr noundef %0, ptr noundef %1) local_unnamed_addr #4 personality ptr @__gxx_personality_v0 {
  %3 = alloca %"class.std::__cxx11::basic_stringstream", align 8
  %4 = alloca %"class.std::__cxx11::basic_string", align 8
  %5 = load atomic i8, ptr @_ZGVZ12emit_failmsgP7_objectPKcE11param_debug acquire, align 8
  %6 = icmp eq i8 %5, 0
  br i1 %6, label %7, label %13, !prof !4

7:                                                ; preds = %2
  %8 = tail call i32 @__cxa_guard_acquire(ptr nonnull @_ZGVZ12emit_failmsgP7_objectPKcE11param_debug) #17
  %.not = icmp eq i32 %8, 0
  br i1 %.not, label %13, label %9

9:                                                ; preds = %7
  %10 = invoke noundef zeroext i1 @_Z28isPythonBindingsDebugEnabledv()
          to label %11 unwind label %16

11:                                               ; preds = %9
  %12 = zext i1 %10 to i8
  store i8 %12, ptr @_ZZ12emit_failmsgP7_objectPKcE11param_debug, align 1
  tail call void @__cxa_guard_release(ptr nonnull @_ZGVZ12emit_failmsgP7_objectPKcE11param_debug) #17
  br label %13

13:                                               ; preds = %11, %7, %2
  %14 = load i8, ptr @_ZZ12emit_failmsgP7_objectPKcE11param_debug, align 1
  %15 = trunc nuw i8 %14 to i1
  br i1 %15, label %18, label %42

16:                                               ; preds = %9
  %17 = landingpad { ptr, i32 }
          cleanup
  tail call void @__cxa_guard_abort(ptr nonnull @_ZGVZ12emit_failmsgP7_objectPKcE11param_debug) #17
  br label %43

18:                                               ; preds = %13
  %19 = tail call noundef ptr @_ZN2cv5utils7logging8internal15getGlobalLogTagEv()
  %.not13 = icmp eq ptr %19, null
  br i1 %.not13, label %24, label %20

20:                                               ; preds = %18
  %21 = getelementptr inbounds i8, ptr %19, i64 8
  %22 = load i32, ptr %21, align 8
  %23 = icmp slt i32 %22, 3
  br i1 %23, label %42, label %24

24:                                               ; preds = %20, %18
  call void @_ZNSt7__cxx1118basic_stringstreamIcSt11char_traitsIcESaIcEEC1Ev(ptr noundef nonnull align 8 dereferenceable(128) %3)
  %25 = getelementptr inbounds i8, ptr %3, i64 16
  %26 = invoke noundef nonnull align 8 dereferenceable(8) ptr @_ZStlsISt11char_traitsIcEERSt13basic_ostreamIcT_ES5_PKc(ptr noundef nonnull align 8 dereferenceable(8) %25, ptr noundef nonnull @.str.2)
          to label %27 unwind label %37

27:                                               ; preds = %24
  %28 = invoke noundef nonnull align 8 dereferenceable(8) ptr @_ZStlsISt11char_traitsIcEERSt13basic_ostreamIcT_ES5_PKc(ptr noundef nonnull align 8 dereferenceable(8) %26, ptr noundef %1)
          to label %29 unwind label %37

29:                                               ; preds = %27
  br i1 %.not13, label %32, label %30

30:                                               ; preds = %29
  %31 = load ptr, ptr %19, align 8
  br label %32

32:                                               ; preds = %29, %30
  %33 = phi ptr [ %31, %30 ], [ null, %29 ]
  invoke void @_ZNKSt7__cxx1118basic_stringstreamIcSt11char_traitsIcESaIcEE3strEv(ptr dead_on_unwind nonnull writable sret(%"class.std::__cxx11::basic_string") align 8 %4, ptr noundef nonnull align 8 dereferenceable(128) %3)
          to label %34 unwind label %37

34:                                               ; preds = %32
  %35 = call noundef ptr @_ZNKSt7__cxx1112basic_stringIcSt11char_traitsIcESaIcEE5c_strEv(ptr noundef nonnull align 8 dereferenceable(32) %4) #17
  invoke void @_ZN2cv5utils7logging8internal17writeLogMessageExENS1_8LogLevelEPKcS5_iS5_S5_(i32 noundef 3, ptr noundef %33, ptr noundef nonnull @.str.3, i32 noundef 24, ptr noundef nonnull @__func__._Z12emit_failmsgP7_objectPKc, ptr noundef %35)
          to label %36 unwind label %39

36:                                               ; preds = %34
  call void @_ZNSt7__cxx1112basic_stringIcSt11char_traitsIcESaIcEED1Ev(ptr noundef nonnull align 8 dereferenceable(32) %4) #17
  call void @_ZNSt7__cxx1118basic_stringstreamIcSt11char_traitsIcESaIcEED1Ev(ptr noundef nonnull align 8 dereferenceable(128) %3) #17
  br label %42

37:                                               ; preds = %32, %27, %24
  %38 = landingpad { ptr, i32 }
          cleanup
  br label %41

39:                                               ; preds = %34
  %40 = landingpad { ptr, i32 }
          cleanup
  call void @_ZNSt7__cxx1112basic_stringIcSt11char_traitsIcESaIcEED1Ev(ptr noundef nonnull align 8 dereferenceable(32) %4) #17
  br label %41

41:                                               ; preds = %39, %37
  %.pn = phi { ptr, i32 } [ %40, %39 ], [ %38, %37 ]
  call void @_ZNSt7__cxx1118basic_stringstreamIcSt11char_traitsIcESaIcEED1Ev(ptr noundef nonnull align 8 dereferenceable(128) %3) #17
  br label %43

42:                                               ; preds = %36, %20, %13
  call void @PyErr_SetString(ptr noundef %0, ptr noundef %1)
  ret void

43:                                               ; preds = %41, %16
  %.pn.pn = phi { ptr, i32 } [ %.pn, %41 ], [ %17, %16 ]
  resume { ptr, i32 } %.pn.pn
}